target datalayout = "e-m:e-p270:32:32-p271:32:32-p272:64:64-i64:64-i128:128-f80:128-n8:16:32:64-S128"
target triple = "x86_64-pc-linux-gnu"

%struct.camelsrt_info_t = type { i32, ptr, i8, [10 x i8], [10 x %struct.camelsrt_msginfo_t] }
%struct.camelsrt_msginfo_t = type { i8, i8, i8, %struct.nstime_t, %struct.nstime_t }
%struct.nstime_t = type { i64, i32 }

@camelsrt_global_current = internal global i32 0, align 4
@camelsrt_global_info = internal global [10 x %struct.camelsrt_info_t] zeroinitializer, align 16

; Function Attrs: alwaysinline nounwind
define internal ptr @memset.inline(ptr %0, i32 %1, i64 %2) #4 {
  %4 = alloca ptr, align 8
  %5 = alloca i32, align 4
  %6 = alloca i64, align 8
  store ptr %0, ptr %4, align 8
  store i32 %1, ptr %5, align 4
  store i64 %2, ptr %6, align 8
  %7 = load ptr, ptr %4, align 8
  %8 = load i32, ptr %5, align 4
  %9 = load i64, ptr %6, align 8
  %10 = load ptr, ptr %4, align 8
  %11 = call i64 @llvm.objectsize.i64.p0(ptr %10, i1 false, i1 true, i1 true)
  %12 = call ptr @__memset_chk(ptr noundef %7, i32 noundef %8, i64 noundef %9, i64 noundef %11) #11
  ret ptr %12
}

; Function Attrs: nounwind null_pointer_is_valid sspstrong uwtable
define hidden ptr @camelsrt_razinfo() #2 {
  %1 = alloca ptr, align 8
  call void @llvm.lifetime.start.p0(i64 8, ptr %1) #11
  %2 = load i32, ptr @camelsrt_global_current, align 4
  %3 = add i32 %2, 1
  store i32 %3, ptr @camelsrt_global_current, align 4
  %4 = load i32, ptr @camelsrt_global_current, align 4
  %5 = icmp eq i32 %4, 10
  br i1 %5, label %6, label %7

6:                                                ; preds = %0
  store i32 0, ptr @camelsrt_global_current, align 4
  br label %7

7:                                                ; preds = %6, %0
  %8 = load i32, ptr @camelsrt_global_current, align 4
  %9 = sext i32 %8 to i64
  %10 = getelementptr [10 x %struct.camelsrt_info_t], ptr @camelsrt_global_info, i64 0, i64 %9
  store ptr %10, ptr %1, align 8
  %11 = load ptr, ptr %1, align 8
  %12 = call ptr @memset.inline(ptr noundef %11, i32 noundef 0, i64 noundef 432) #11
  %13 = load ptr, ptr %1, align 8
  %14 = getelementptr inbounds nuw %struct.camelsrt_info_t, ptr %13, i32 0, i32 2
  store i8 -1, ptr %14, align 8
  %15 = load ptr, ptr %1, align 8
  call void @llvm.lifetime.end.p0(i64 8, ptr %1) #11
  ret ptr %15
}