; Function Attrs: nofree nounwind null_pointer_is_valid sspstrong memory(readwrite, argmem: none, inaccessiblemem: none) uwtable
define hidden noundef ptr @camelsrt_razinfo() local_unnamed_addr #2 {
  %1 = load i32, ptr @camelsrt_global_current, align 4
  %2 = add i32 %1, 1
  %3 = icmp eq i32 %2, 10
  %spec.store.select = select i1 %3, i32 0, i32 %2
  store i32 %spec.store.select, ptr @camelsrt_global_current, align 4
  %4 = sext i32 %spec.store.select to i64
  %.idx = mul nsw i64 %4, 432
  %5 = getelementptr [10 x %struct.camelsrt_info_t], ptr @camelsrt_global_info, i64 0, i64 %4
  %6 = tail call i64 @llvm.usub.sat.i64(i64 4320, i64 %.idx)
  %7 = tail call ptr @__memset_chk(ptr noundef %5, i32 noundef 0, i64 noundef 432, i64 noundef %6) #12
  %8 = getelementptr inbounds nuw i8, ptr %5, i64 16
  store i8 -1, ptr %8, align 16
  ret ptr %5
}